target datalayout = "e-m:e-p270:32:32-p271:32:32-p272:64:64-i64:64-i128:128-f80:128-n8:16:32:64-S128"
target triple = "x86_64-unknown-linux-gnu"

%struct.ESPState = type { %struct.DeviceState, [16 x i8], [16 x i8], ptr, ptr, i8, i8, i32, i32, i32, %struct.Fifo8, %struct.SCSIBus, ptr, ptr, %struct.Fifo8, i8, i8, i32, i8, i8, i32, i32, ptr, ptr, ptr, ptr, ptr, i8, i8, i32, i32, i8, i32, i32, [16 x i8], [32 x i8], i32 }
%struct.DeviceState = type { %struct.Object, ptr, ptr, i8, i8, i64, ptr, i32, i8, ptr, %struct.NamedGPIOListHead, %struct.NamedClockListHead, %struct.BusStateHead, i32, i32, i32, %struct.ResettableState, ptr, %struct.MemReentrancyGuard }
%struct.Object = type { ptr, ptr, ptr, i32, ptr }
%struct.NamedGPIOListHead = type { ptr }
%struct.NamedClockListHead = type { ptr }
%struct.BusStateHead = type { ptr }
%struct.ResettableState = type { i32, i8, i8 }
%struct.MemReentrancyGuard = type { i8 }
%struct.SCSIBus = type { %struct.BusState, i32, %struct.SCSISense, ptr, i32 }
%struct.BusState = type { %struct.Object, ptr, ptr, ptr, i32, i8, i8, i32, %union.BusChildHead, %struct.BusStateEntry, %struct.ResettableState }
%union.BusChildHead = type { %struct.QTailQLink }
%struct.QTailQLink = type { ptr, ptr }
%struct.BusStateEntry = type { ptr, ptr }
%struct.SCSISense = type { i8, i8, i8 }
%struct.Fifo8 = type { ptr, i32, i32, i32 }
%struct.SCSIRequest = type { ptr, ptr, ptr, i32, i32, i32, i16, i16, ptr, i64, %struct.SCSICommand, %struct.NotifierList, [252 x i8], i32, i8, i8, i8, i8, ptr, ptr, %union.anon }
%struct.SCSICommand = type { [16 x i8], i32, i64, i64, i32 }
%struct.NotifierList = type { %struct.anon }
%struct.anon = type { ptr }
%union.anon = type { %struct.QTailQLink }
%struct.timeval = type { i64, i64 }

@.str = private unnamed_addr constant [11 x i8] c"!s->do_cmd\00", align 1
@.str.1 = private unnamed_addr constant [22 x i8] c"../qemu/hw/scsi/esp.c\00", align 1
@__PRETTY_FUNCTION__.esp_transfer_data = private unnamed_addr constant [48 x i8] c"void esp_transfer_data(SCSIRequest *, uint32_t)\00", align 1
@trace_events_enabled_count = external global i32, align 4
@message_with_timestamp = external global i8, align 1
@_TRACE_ESP_LOWER_DRQ_DSTATE = external global i16, align 2
@.str.35 = private unnamed_addr constant [39 x i8] c"%d@%zu.%06zu:esp_lower_drq Lower DREQ\0A\00", align 1
@.str.36 = private unnamed_addr constant [26 x i8] c"esp_lower_drq Lower DREQ\0A\00", align 1
@_TRACE_ESP_TRANSFER_DATA_DSTATE = external global i16, align 2
@.str.37 = private unnamed_addr constant [47 x i8] c"%d@%zu.%06zu:esp_transfer_data transfer %d/%d\0A\00", align 1
@.str.38 = private unnamed_addr constant [34 x i8] c"esp_transfer_data transfer %d/%d\0A\00", align 1
@qemu_loglevel = external global i32, align 4

; Function Attrs: nounwind sspstrong uwtable
define internal void @_nocheck__trace_esp_lower_drq() #0 {
entry:
  %_now = alloca %struct.timeval, align 8
  %0 = load i32, ptr @trace_events_enabled_count, align 4
  %tobool = icmp ne i32 %0, 0
  %lnot = xor i1 %tobool, true
  %lnot1 = xor i1 %lnot, true
  %lnot.ext = zext i1 %lnot1 to i32
  %conv = sext i32 %lnot.ext to i64
  %tobool2 = icmp ne i64 %conv, 0
  br i1 %tobool2, label %land.lhs.true, label %if.end11

land.lhs.true:                                    ; preds = %entry
  %1 = load i16, ptr @_TRACE_ESP_LOWER_DRQ_DSTATE, align 2
  %conv3 = zext i16 %1 to i32
  %tobool4 = icmp ne i32 %conv3, 0
  br i1 %tobool4, label %land.lhs.true5, label %if.end11

land.lhs.true5:                                   ; preds = %land.lhs.true
  %call = call zeroext i1 @qemu_loglevel_mask(i32 noundef 32768)
  br i1 %call, label %if.then, label %if.end11

if.then:                                          ; preds = %land.lhs.true5
  %2 = load i8, ptr @message_with_timestamp, align 1
  %tobool7 = trunc i8 %2 to i1
  br i1 %tobool7, label %if.then8, label %if.else

if.then8:                                         ; preds = %if.then
  %call9 = call i32 @gettimeofday(ptr noundef %_now, ptr noundef null) #8
  %call10 = call i32 @qemu_get_thread_id()
  %tv_sec = getelementptr inbounds %struct.timeval, ptr %_now, i32 0, i32 0
  %3 = load i64, ptr %tv_sec, align 8
  %tv_usec = getelementptr inbounds %struct.timeval, ptr %_now, i32 0, i32 1
  %4 = load i64, ptr %tv_usec, align 8
  call void (ptr, ...) @qemu_log(ptr noundef @.str.35, i32 noundef %call10, i64 noundef %3, i64 noundef %4)
  br label %if.end

if.else:                                          ; preds = %if.then
  call void (ptr, ...) @qemu_log(ptr noundef @.str.36)
  br label %if.end

if.end:                                           ; preds = %if.else, %if.then8
  br label %if.end11

if.end11:                                         ; preds = %if.end, %land.lhs.true5, %land.lhs.true, %entry
  ret void
}

; Function Attrs: nounwind sspstrong uwtable
define internal zeroext i1 @qemu_loglevel_mask(i32 noundef %mask) #0 {
entry:
  %mask.addr = alloca i32, align 4
  store i32 %mask, ptr %mask.addr, align 4
  %0 = load i32, ptr @qemu_loglevel, align 4
  %1 = load i32, ptr %mask.addr, align 4
  %and = and i32 %0, %1
  %cmp = icmp ne i32 %and, 0
  ret i1 %cmp
}

; Function Attrs: nounwind sspstrong uwtable
define internal void @trace_esp_lower_drq() #0 {
entry:
  call void @_nocheck__trace_esp_lower_drq()
  ret void
}

; Function Attrs: nounwind sspstrong uwtable
define internal void @qemu_irq_lower(ptr noundef %irq) #0 {
entry:
  %irq.addr = alloca ptr, align 8
  store ptr %irq, ptr %irq.addr, align 8
  %0 = load ptr, ptr %irq.addr, align 8
  call void @qemu_set_irq(ptr noundef %0, i32 noundef 0)
  ret void
}

; Function Attrs: nounwind sspstrong uwtable
define internal void @esp_set_tc(ptr noundef %s, i32 noundef %dmalen) #0 {
entry:
  %s.addr = alloca ptr, align 8
  %dmalen.addr = alloca i32, align 4
  store ptr %s, ptr %s.addr, align 8
  store i32 %dmalen, ptr %dmalen.addr, align 4
  %0 = load i32, ptr %dmalen.addr, align 4
  %conv = trunc i32 %0 to i8
  %1 = load ptr, ptr %s.addr, align 8
  %rregs = getelementptr inbounds %struct.ESPState, ptr %1, i32 0, i32 1
  %arrayidx = getelementptr [16 x i8], ptr %rregs, i64 0, i64 0
  store i8 %conv, ptr %arrayidx, align 8
  %2 = load i32, ptr %dmalen.addr, align 4
  %shr = lshr i32 %2, 8
  %conv1 = trunc i32 %shr to i8
  %3 = load ptr, ptr %s.addr, align 8
  %rregs2 = getelementptr inbounds %struct.ESPState, ptr %3, i32 0, i32 1
  %arrayidx3 = getelementptr [16 x i8], ptr %rregs2, i64 0, i64 1
  store i8 %conv1, ptr %arrayidx3, align 1
  %4 = load i32, ptr %dmalen.addr, align 4
  %shr4 = lshr i32 %4, 16
  %conv5 = trunc i32 %shr4 to i8
  %5 = load ptr, ptr %s.addr, align 8
  %rregs6 = getelementptr inbounds %struct.ESPState, ptr %5, i32 0, i32 1
  %arrayidx7 = getelementptr [16 x i8], ptr %rregs6, i64 0, i64 14
  store i8 %conv5, ptr %arrayidx7, align 2
  ret void
}

; Function Attrs: nounwind sspstrong uwtable
define internal void @_nocheck__trace_esp_transfer_data(i32 noundef %dma_left, i32 noundef %ti_size) #0 {
entry:
  %dma_left.addr = alloca i32, align 4
  %ti_size.addr = alloca i32, align 4
  %_now = alloca %struct.timeval, align 8
  store i32 %dma_left, ptr %dma_left.addr, align 4
  store i32 %ti_size, ptr %ti_size.addr, align 4
  %0 = load i32, ptr @trace_events_enabled_count, align 4
  %tobool = icmp ne i32 %0, 0
  %lnot = xor i1 %tobool, true
  %lnot1 = xor i1 %lnot, true
  %lnot.ext = zext i1 %lnot1 to i32
  %conv = sext i32 %lnot.ext to i64
  %tobool2 = icmp ne i64 %conv, 0
  br i1 %tobool2, label %land.lhs.true, label %if.end11

land.lhs.true:                                    ; preds = %entry
  %1 = load i16, ptr @_TRACE_ESP_TRANSFER_DATA_DSTATE, align 2
  %conv3 = zext i16 %1 to i32
  %tobool4 = icmp ne i32 %conv3, 0
  br i1 %tobool4, label %land.lhs.true5, label %if.end11

land.lhs.true5:                                   ; preds = %land.lhs.true
  %call = call zeroext i1 @qemu_loglevel_mask(i32 noundef 32768)
  br i1 %call, label %if.then, label %if.end11

if.then:                                          ; preds = %land.lhs.true5
  %2 = load i8, ptr @message_with_timestamp, align 1
  %tobool7 = trunc i8 %2 to i1
  br i1 %tobool7, label %if.then8, label %if.else

if.then8:                                         ; preds = %if.then
  %call9 = call i32 @gettimeofday(ptr noundef %_now, ptr noundef null) #8
  %call10 = call i32 @qemu_get_thread_id()
  %tv_sec = getelementptr inbounds %struct.timeval, ptr %_now, i32 0, i32 0
  %3 = load i64, ptr %tv_sec, align 8
  %tv_usec = getelementptr inbounds %struct.timeval, ptr %_now, i32 0, i32 1
  %4 = load i64, ptr %tv_usec, align 8
  %5 = load i32, ptr %dma_left.addr, align 4
  %6 = load i32, ptr %ti_size.addr, align 4
  call void (ptr, ...) @qemu_log(ptr noundef @.str.37, i32 noundef %call10, i64 noundef %3, i64 noundef %4, i32 noundef %5, i32 noundef %6)
  br label %if.end

if.else:                                          ; preds = %if.then
  %7 = load i32, ptr %dma_left.addr, align 4
  %8 = load i32, ptr %ti_size.addr, align 4
  call void (ptr, ...) @qemu_log(ptr noundef @.str.38, i32 noundef %7, i32 noundef %8)
  br label %if.end

if.end:                                           ; preds = %if.else, %if.then8
  br label %if.end11

if.end11:                                         ; preds = %if.end, %land.lhs.true5, %land.lhs.true, %entry
  ret void
}

; Function Attrs: nounwind sspstrong uwtable
define internal void @esp_lower_drq(ptr noundef %s) #0 {
entry:
  %s.addr = alloca ptr, align 8
  store ptr %s, ptr %s.addr, align 8
  %0 = load ptr, ptr %s.addr, align 8
  %irq_data = getelementptr inbounds %struct.ESPState, ptr %0, i32 0, i32 4
  %1 = load ptr, ptr %irq_data, align 8
  call void @qemu_irq_lower(ptr noundef %1)
  call void @trace_esp_lower_drq()
  ret void
}

; Function Attrs: nounwind sspstrong uwtable
define internal void @esp_dma_done(ptr noundef %s) #0 {
entry:
  %s.addr = alloca ptr, align 8
  store ptr %s, ptr %s.addr, align 8
  %0 = load ptr, ptr %s.addr, align 8
  %rregs = getelementptr inbounds %struct.ESPState, ptr %0, i32 0, i32 1
  %arrayidx = getelementptr [16 x i8], ptr %rregs, i64 0, i64 4
  %1 = load i8, ptr %arrayidx, align 4
  %conv = zext i8 %1 to i32
  %or = or i32 %conv, 16
  %conv1 = trunc i32 %or to i8
  store i8 %conv1, ptr %arrayidx, align 4
  %2 = load ptr, ptr %s.addr, align 8
  %rregs2 = getelementptr inbounds %struct.ESPState, ptr %2, i32 0, i32 1
  %arrayidx3 = getelementptr [16 x i8], ptr %rregs2, i64 0, i64 5
  %3 = load i8, ptr %arrayidx3, align 1
  %conv4 = zext i8 %3 to i32
  %or5 = or i32 %conv4, 16
  %conv6 = trunc i32 %or5 to i8
  store i8 %conv6, ptr %arrayidx3, align 1
  %4 = load ptr, ptr %s.addr, align 8
  %rregs7 = getelementptr inbounds %struct.ESPState, ptr %4, i32 0, i32 1
  %arrayidx8 = getelementptr [16 x i8], ptr %rregs7, i64 0, i64 7
  store i8 0, ptr %arrayidx8, align 1
  %5 = load ptr, ptr %s.addr, align 8
  call void @esp_set_tc(ptr noundef %5, i32 noundef 0)
  %6 = load ptr, ptr %s.addr, align 8
  call void @esp_raise_irq(ptr noundef %6)
  ret void
}

; Function Attrs: nounwind sspstrong uwtable
define internal void @trace_esp_transfer_data(i32 noundef %dma_left, i32 noundef %ti_size) #0 {
entry:
  %dma_left.addr = alloca i32, align 4
  %ti_size.addr = alloca i32, align 4
  store i32 %dma_left, ptr %dma_left.addr, align 4
  store i32 %ti_size, ptr %ti_size.addr, align 4
  %0 = load i32, ptr %dma_left.addr, align 4
  %1 = load i32, ptr %ti_size.addr, align 4
  call void @_nocheck__trace_esp_transfer_data(i32 noundef %0, i32 noundef %1)
  ret void
}

; Function Attrs: nounwind sspstrong uwtable
define internal i32 @esp_get_tc(ptr noundef %s) #0 {
entry:
  %s.addr = alloca ptr, align 8
  %dmalen = alloca i32, align 4
  store ptr %s, ptr %s.addr, align 8
  %0 = load ptr, ptr %s.addr, align 8
  %rregs = getelementptr inbounds %struct.ESPState, ptr %0, i32 0, i32 1
  %arrayidx = getelementptr [16 x i8], ptr %rregs, i64 0, i64 0
  %1 = load i8, ptr %arrayidx, align 8
  %conv = zext i8 %1 to i32
  store i32 %conv, ptr %dmalen, align 4
  %2 = load ptr, ptr %s.addr, align 8
  %rregs1 = getelementptr inbounds %struct.ESPState, ptr %2, i32 0, i32 1
  %arrayidx2 = getelementptr [16 x i8], ptr %rregs1, i64 0, i64 1
  %3 = load i8, ptr %arrayidx2, align 1
  %conv3 = zext i8 %3 to i32
  %shl = shl i32 %conv3, 8
  %4 = load i32, ptr %dmalen, align 4
  %or = or i32 %4, %shl
  store i32 %or, ptr %dmalen, align 4
  %5 = load ptr, ptr %s.addr, align 8
  %rregs4 = getelementptr inbounds %struct.ESPState, ptr %5, i32 0, i32 1
  %arrayidx5 = getelementptr [16 x i8], ptr %rregs4, i64 0, i64 14
  %6 = load i8, ptr %arrayidx5, align 2
  %conv6 = zext i8 %6 to i32
  %shl7 = shl i32 %conv6, 16
  %7 = load i32, ptr %dmalen, align 4
  %or8 = or i32 %7, %shl7
  store i32 %or8, ptr %dmalen, align 4
  %8 = load i32, ptr %dmalen, align 4
  ret i32 %8
}

; Function Attrs: nounwind sspstrong uwtable
define dso_local void @esp_transfer_data(ptr noundef %req, i32 noundef %len) #0 {
entry:
  %req.addr = alloca ptr, align 8
  %len.addr = alloca i32, align 4
  %s = alloca ptr, align 8
  %to_device = alloca i32, align 4
  %dmalen = alloca i32, align 4
  store ptr %req, ptr %req.addr, align 8
  store i32 %len, ptr %len.addr, align 4
  %0 = load ptr, ptr %req.addr, align 8
  %hba_private = getelementptr inbounds %struct.SCSIRequest, ptr %0, i32 0, i32 8
  %1 = load ptr, ptr %hba_private, align 8
  store ptr %1, ptr %s, align 8
  %2 = load ptr, ptr %s, align 8
  %rregs = getelementptr inbounds %struct.ESPState, ptr %2, i32 0, i32 1
  %arrayidx = getelementptr [16 x i8], ptr %rregs, i64 0, i64 4
  %3 = load i8, ptr %arrayidx, align 4
  %conv = zext i8 %3 to i32
  %and = and i32 %conv, 7
  %cmp = icmp eq i32 %and, 0
  %conv1 = zext i1 %cmp to i32
  store i32 %conv1, ptr %to_device, align 4
  %4 = load ptr, ptr %s, align 8
  %call = call i32 @esp_get_tc(ptr noundef %4)
  store i32 %call, ptr %dmalen, align 4
  %5 = load ptr, ptr %s, align 8
  %do_cmd = getelementptr inbounds %struct.ESPState, ptr %5, i32 0, i32 17
  %6 = load i32, ptr %do_cmd, align 4
  %tobool = icmp ne i32 %6, 0
  br i1 %tobool, label %if.else, label %if.then

if.then:                                          ; preds = %entry
  br label %if.end

if.else:                                          ; preds = %entry
  call void @__assert_fail(ptr noundef @.str, ptr noundef @.str.1, i32 noundef 856, ptr noundef @__PRETTY_FUNCTION__.esp_transfer_data) #7
  unreachable

if.end:                                           ; preds = %if.then
  %7 = load i32, ptr %dmalen, align 4
  %8 = load ptr, ptr %s, align 8
  %ti_size = getelementptr inbounds %struct.ESPState, ptr %8, i32 0, i32 7
  %9 = load i32, ptr %ti_size, align 4
  call void @trace_esp_transfer_data(i32 noundef %7, i32 noundef %9)
  %10 = load i32, ptr %len.addr, align 4
  %11 = load ptr, ptr %s, align 8
  %async_len = getelementptr inbounds %struct.ESPState, ptr %11, i32 0, i32 21
  store i32 %10, ptr %async_len, align 8
  %12 = load ptr, ptr %req.addr, align 8
  %call2 = call ptr @scsi_req_get_buf(ptr noundef %12)
  %13 = load ptr, ptr %s, align 8
  %async_buf = getelementptr inbounds %struct.ESPState, ptr %13, i32 0, i32 22
  store ptr %call2, ptr %async_buf, align 8
  %14 = load i32, ptr %to_device, align 4
  %tobool3 = icmp ne i32 %14, 0
  br i1 %tobool3, label %if.end16, label %land.lhs.true

land.lhs.true:                                    ; preds = %if.end
  %15 = load ptr, ptr %s, align 8
  %data_in_ready = getelementptr inbounds %struct.ESPState, ptr %15, i32 0, i32 18
  %16 = load i8, ptr %data_in_ready, align 8
  %tobool4 = trunc i8 %16 to i1
  br i1 %tobool4, label %if.end16, label %if.then5

if.then5:                                         ; preds = %land.lhs.true
  %17 = load ptr, ptr %s, align 8
  %data_in_ready6 = getelementptr inbounds %struct.ESPState, ptr %17, i32 0, i32 18
  store i8 1, ptr %data_in_ready6, align 8
  %18 = load ptr, ptr %s, align 8
  %rregs7 = getelementptr inbounds %struct.ESPState, ptr %18, i32 0, i32 1
  %arrayidx8 = getelementptr [16 x i8], ptr %rregs7, i64 0, i64 4
  %19 = load i8, ptr %arrayidx8, align 4
  %conv9 = zext i8 %19 to i32
  %or = or i32 %conv9, 16
  %conv10 = trunc i32 %or to i8
  store i8 %conv10, ptr %arrayidx8, align 4
  %20 = load ptr, ptr %s, align 8
  %rregs11 = getelementptr inbounds %struct.ESPState, ptr %20, i32 0, i32 1
  %arrayidx12 = getelementptr [16 x i8], ptr %rregs11, i64 0, i64 5
  %21 = load i8, ptr %arrayidx12, align 1
  %conv13 = zext i8 %21 to i32
  %or14 = or i32 %conv13, 16
  %conv15 = trunc i32 %or14 to i8
  store i8 %conv15, ptr %arrayidx12, align 1
  %22 = load ptr, ptr %s, align 8
  call void @esp_raise_irq(ptr noundef %22)
  br label %if.end16

if.end16:                                         ; preds = %if.then5, %land.lhs.true, %if.end
  %23 = load ptr, ptr %s, align 8
  %ti_cmd = getelementptr inbounds %struct.ESPState, ptr %23, i32 0, i32 19
  %24 = load i8, ptr %ti_cmd, align 1
  %conv17 = zext i8 %24 to i32
  %cmp18 = icmp eq i32 %conv17, 0
  br i1 %cmp18, label %if.then20, label %if.end21

if.then20:                                        ; preds = %if.end16
  br label %if.end43

if.end21:                                         ; preds = %if.end16
  %25 = load ptr, ptr %s, align 8
  %ti_cmd22 = getelementptr inbounds %struct.ESPState, ptr %25, i32 0, i32 19
  %26 = load i8, ptr %ti_cmd22, align 1
  %conv23 = zext i8 %26 to i32
  %cmp24 = icmp eq i32 %conv23, 144
  br i1 %cmp24, label %if.then26, label %if.else36

if.then26:                                        ; preds = %if.end21
  %27 = load i32, ptr %dmalen, align 4
  %tobool27 = icmp ne i32 %27, 0
  br i1 %tobool27, label %if.then28, label %if.else29

if.then28:                                        ; preds = %if.then26
  %28 = load ptr, ptr %s, align 8
  call void @esp_do_dma(ptr noundef %28)
  br label %if.end35

if.else29:                                        ; preds = %if.then26
  %29 = load ptr, ptr %s, align 8
  %ti_size30 = getelementptr inbounds %struct.ESPState, ptr %29, i32 0, i32 7
  %30 = load i32, ptr %ti_size30, align 4
  %cmp31 = icmp sle i32 %30, 0
  br i1 %cmp31, label %if.then33, label %if.end34

if.then33:                                        ; preds = %if.else29
  %31 = load ptr, ptr %s, align 8
  call void @esp_dma_done(ptr noundef %31)
  %32 = load ptr, ptr %s, align 8
  call void @esp_lower_drq(ptr noundef %32)
  br label %if.end34

if.end34:                                         ; preds = %if.then33, %if.else29
  br label %if.end35

if.end35:                                         ; preds = %if.end34, %if.then28
  br label %if.end43

if.else36:                                        ; preds = %if.end21
  %33 = load ptr, ptr %s, align 8
  %ti_cmd37 = getelementptr inbounds %struct.ESPState, ptr %33, i32 0, i32 19
  %34 = load i8, ptr %ti_cmd37, align 1
  %conv38 = zext i8 %34 to i32
  %cmp39 = icmp eq i32 %conv38, 16
  br i1 %cmp39, label %if.then41, label %if.end42

if.then41:                                        ; preds = %if.else36
  %35 = load ptr, ptr %s, align 8
  call void @esp_do_nodma(ptr noundef %35)
  br label %if.end42

if.end42:                                         ; preds = %if.then41, %if.else36
  br label %if.end43

if.end43:                                         ; preds = %if.end42, %if.end35, %if.then20
  ret void
}