; Function Attrs: nounwind sspstrong uwtable
define dso_local void @esp_transfer_data(ptr noundef %req, i32 noundef %len) #0 {
entry:
  %_now.i.i.i = alloca %struct.timeval, align 8
  %_now.i.i = alloca %struct.timeval, align 8
  %hba_private = getelementptr inbounds nuw i8, ptr %req, i64 40
  %0 = load ptr, ptr %hba_private, align 8
  %arrayidx = getelementptr i8, ptr %0, i64 164
  %rregs.i = getelementptr inbounds nuw i8, ptr %0, i64 160
  %1 = load i16, ptr %rregs.i, align 8
  %2 = zext i16 %1 to i32
  %arrayidx5.i = getelementptr i8, ptr %0, i64 174
  %3 = load i8, ptr %arrayidx5.i, align 2
  %conv6.i = zext i8 %3 to i32
  %shl7.i = shl nuw nsw i32 %conv6.i, 16
  %or8.i = or disjoint i32 %shl7.i, %2
  %do_cmd = getelementptr inbounds nuw i8, ptr %0, i64 436
  %4 = load i32, ptr %do_cmd, align 4
  %tobool.not = icmp eq i32 %4, 0
  br i1 %tobool.not, label %if.end, label %if.else

if.else:                                          ; preds = %entry
  tail call void @__assert_fail(ptr noundef nonnull @.str, ptr noundef nonnull @.str.1, i32 noundef 856, ptr noundef nonnull @__PRETTY_FUNCTION__.esp_transfer_data) #11
  unreachable

if.end:                                           ; preds = %entry
  %5 = load i8, ptr %arrayidx, align 4
  %6 = and i8 %5, 7
  %cmp = icmp eq i8 %6, 0
  %ti_size = getelementptr inbounds nuw i8, ptr %0, i64 212
  %7 = load i32, ptr %ti_size, align 4
  call void @llvm.lifetime.start.p0(i64 16, ptr nonnull %_now.i.i)
  %8 = load i32, ptr @trace_events_enabled_count, align 4
  %tobool.i.i = icmp ne i32 %8, 0
  %9 = load i16, ptr @_TRACE_ESP_TRANSFER_DATA_DSTATE, align 2
  %tobool4.i.i = icmp ne i16 %9, 0
  %or.cond.i.i = select i1 %tobool.i.i, i1 %tobool4.i.i, i1 false
  br i1 %or.cond.i.i, label %land.lhs.true5.i.i, label %trace_esp_transfer_data.exit

land.lhs.true5.i.i:                               ; preds = %if.end
  %10 = load i32, ptr @qemu_loglevel, align 4
  %and.i.i.i = and i32 %10, 32768
  %cmp.i.not.i.i = icmp eq i32 %and.i.i.i, 0
  br i1 %cmp.i.not.i.i, label %trace_esp_transfer_data.exit, label %if.then.i.i

if.then.i.i:                                      ; preds = %land.lhs.true5.i.i
  %11 = load i8, ptr @message_with_timestamp, align 1
  %tobool7.i.i = trunc i8 %11 to i1
  br i1 %tobool7.i.i, label %if.then8.i.i, label %if.else.i.i

if.then8.i.i:                                     ; preds = %if.then.i.i
  %call9.i.i = call i32 @gettimeofday(ptr noundef nonnull %_now.i.i, ptr noundef null) #10
  %call10.i.i = tail call i32 @qemu_get_thread_id() #10
  %12 = load i64, ptr %_now.i.i, align 8
  %tv_usec.i.i = getelementptr inbounds nuw i8, ptr %_now.i.i, i64 8
  %13 = load i64, ptr %tv_usec.i.i, align 8
  tail call void (ptr, ...) @qemu_log(ptr noundef nonnull @.str.37, i32 noundef %call10.i.i, i64 noundef %12, i64 noundef %13, i32 noundef range(i32 0, 16777216) %or8.i, i32 noundef %7) #10
  br label %trace_esp_transfer_data.exit

if.else.i.i:                                      ; preds = %if.then.i.i
  tail call void (ptr, ...) @qemu_log(ptr noundef nonnull @.str.38, i32 noundef range(i32 0, 16777216) %or8.i, i32 noundef %7) #10
  br label %trace_esp_transfer_data.exit

trace_esp_transfer_data.exit:                     ; preds = %if.end, %land.lhs.true5.i.i, %if.then8.i.i, %if.else.i.i
  call void @llvm.lifetime.end.p0(i64 16, ptr nonnull %_now.i.i)
  %async_len = getelementptr inbounds nuw i8, ptr %0, i64 448
  store i32 %len, ptr %async_len, align 8
  %call2 = tail call ptr @scsi_req_get_buf(ptr noundef nonnull %req) #10
  %async_buf = getelementptr inbounds nuw i8, ptr %0, i64 456
  store ptr %call2, ptr %async_buf, align 8
  br i1 %cmp, label %if.end16, label %land.lhs.true

land.lhs.true:                                    ; preds = %trace_esp_transfer_data.exit
  %data_in_ready = getelementptr inbounds nuw i8, ptr %0, i64 440
  %14 = load i8, ptr %data_in_ready, align 8
  %tobool4 = trunc i8 %14 to i1
  br i1 %tobool4, label %if.end16, label %if.then5

if.then5:                                         ; preds = %land.lhs.true
  store i8 1, ptr %data_in_ready, align 8
  %15 = load i8, ptr %arrayidx, align 4
  %16 = or i8 %15, 16
  store i8 %16, ptr %arrayidx, align 4
  %arrayidx12 = getelementptr i8, ptr %0, i64 165
  %17 = load i8, ptr %arrayidx12, align 1
  %18 = or i8 %17, 16
  store i8 %18, ptr %arrayidx12, align 1
  tail call fastcc void @esp_raise_irq(ptr noundef nonnull %0)
  br label %if.end16

if.end16:                                         ; preds = %if.then5, %land.lhs.true, %trace_esp_transfer_data.exit
  %ti_cmd = getelementptr inbounds nuw i8, ptr %0, i64 441
  %19 = load i8, ptr %ti_cmd, align 1
  switch i8 %19, label %if.end43 [
    i8 16, label %if.then41
    i8 -112, label %if.then26
  ]

if.then26:                                        ; preds = %if.end16
  %tobool27.not = icmp eq i32 %or8.i, 0
  br i1 %tobool27.not, label %if.else29, label %if.then28

if.then28:                                        ; preds = %if.then26
  tail call fastcc void @esp_do_dma(ptr noundef nonnull %0)
  br label %if.end43

if.else29:                                        ; preds = %if.then26
  %20 = load i32, ptr %ti_size, align 4
  %cmp31 = icmp slt i32 %20, 1
  br i1 %cmp31, label %if.then33, label %if.end43

if.then33:                                        ; preds = %if.else29
  %21 = load i8, ptr %arrayidx, align 4
  %22 = or i8 %21, 16
  store i8 %22, ptr %arrayidx, align 4
  %arrayidx3.i = getelementptr i8, ptr %0, i64 165
  %23 = load i8, ptr %arrayidx3.i, align 1
  %24 = or i8 %23, 16
  store i8 %24, ptr %arrayidx3.i, align 1
  %arrayidx8.i = getelementptr i8, ptr %0, i64 167
  store i8 0, ptr %arrayidx8.i, align 1
  store i8 0, ptr %rregs.i, align 8
  %arrayidx3.i.i = getelementptr i8, ptr %0, i64 161
  store i8 0, ptr %arrayidx3.i.i, align 1
  store i8 0, ptr %arrayidx5.i, align 2
  tail call fastcc void @esp_raise_irq(ptr noundef nonnull %0)
  %25 = getelementptr i8, ptr %0, i64 200
  %.val = load ptr, ptr %25, align 8
  tail call void @qemu_set_irq(ptr noundef %.val, i32 noundef 0) #10
  call void @llvm.lifetime.start.p0(i64 16, ptr nonnull %_now.i.i.i)
  %26 = load i32, ptr @trace_events_enabled_count, align 4
  %tobool.i.i.i = icmp ne i32 %26, 0
  %27 = load i16, ptr @_TRACE_ESP_LOWER_DRQ_DSTATE, align 2
  %tobool4.i.i.i = icmp ne i16 %27, 0
  %or.cond.i.i.i = select i1 %tobool.i.i.i, i1 %tobool4.i.i.i, i1 false
  br i1 %or.cond.i.i.i, label %land.lhs.true5.i.i.i, label %esp_lower_drq.exit

land.lhs.true5.i.i.i:                             ; preds = %if.then33
  %28 = load i32, ptr @qemu_loglevel, align 4
  %and.i.i.i.i = and i32 %28, 32768
  %cmp.i.not.i.i.i = icmp eq i32 %and.i.i.i.i, 0
  br i1 %cmp.i.not.i.i.i, label %esp_lower_drq.exit, label %if.then.i.i.i

if.then.i.i.i:                                    ; preds = %land.lhs.true5.i.i.i
  %29 = load i8, ptr @message_with_timestamp, align 1
  %tobool7.i.i.i = trunc i8 %29 to i1
  br i1 %tobool7.i.i.i, label %if.then8.i.i.i, label %if.else.i.i.i

if.then8.i.i.i:                                   ; preds = %if.then.i.i.i
  %call9.i.i.i = call i32 @gettimeofday(ptr noundef nonnull %_now.i.i.i, ptr noundef null) #10
  %call10.i.i.i = tail call i32 @qemu_get_thread_id() #10
  %30 = load i64, ptr %_now.i.i.i, align 8
  %tv_usec.i.i.i = getelementptr inbounds nuw i8, ptr %_now.i.i.i, i64 8
  %31 = load i64, ptr %tv_usec.i.i.i, align 8
  tail call void (ptr, ...) @qemu_log(ptr noundef nonnull @.str.35, i32 noundef %call10.i.i.i, i64 noundef %30, i64 noundef %31) #10
  br label %esp_lower_drq.exit

if.else.i.i.i:                                    ; preds = %if.then.i.i.i
  tail call void (ptr, ...) @qemu_log(ptr noundef nonnull @.str.36) #10
  br label %esp_lower_drq.exit

esp_lower_drq.exit:                               ; preds = %if.then33, %land.lhs.true5.i.i.i, %if.then8.i.i.i, %if.else.i.i.i
  call void @llvm.lifetime.end.p0(i64 16, ptr nonnull %_now.i.i.i)
  br label %if.end43

if.then41:                                        ; preds = %if.end16
  tail call fastcc void @esp_do_nodma(ptr noundef nonnull %0)
  br label %if.end43

if.end43:                                         ; preds = %if.end16, %if.then41, %if.then28, %esp_lower_drq.exit, %if.else29
  ret void
}